; Function Attrs: nounwind uwtable
define hidden i32 @_ir_CALL_5(ptr nocapture noundef %0, i32 noundef %1, i32 noundef %2, i32 noundef %3, i32 noundef %4, i32 noundef %5, i32 noundef %6, i32 noundef %7) local_unnamed_addr #0 {
  %9 = getelementptr inbounds i8, ptr %0, i64 8
  %10 = load i32, ptr %9, align 8
  %11 = add nsw i32 %10, 1
  %12 = getelementptr inbounds i8, ptr %0, i64 12
  %13 = load i32, ptr %12, align 4
  %.not22.i = icmp slt i32 %11, %13
  %.pre30.i = load ptr, ptr %0, align 8
  br i1 %.not22.i, label %ir_emit_N.exit, label %.lr.ph.i

.lr.ph.i:                                         ; preds = %8
  %14 = getelementptr inbounds i8, ptr %0, i64 20
  %.pre29.i = load i32, ptr %14, align 4
  br label %15

15:                                               ; preds = %15, %.lr.ph.i
  %16 = phi i32 [ %.pre29.i, %.lr.ph.i ], [ %30, %15 ]
  %17 = phi ptr [ %.pre30.i, %.lr.ph.i ], [ %32, %15 ]
  %18 = phi i32 [ %13, %.lr.ph.i ], [ %33, %15 ]
  %19 = icmp slt i32 %18, 4096
  %20 = shl nsw i32 %18, 1
  %21 = icmp ult i32 %18, 8192
  %22 = add nuw nsw i32 %18, 4096
  %spec.select.i.i = select i1 %21, i32 8192, i32 %22
  %.sink.i.i = select i1 %19, i32 %20, i32 %spec.select.i.i
  store i32 %.sink.i.i, ptr %12, align 4
  %23 = sext i32 %16 to i64
  %24 = sub nsw i64 0, %23
  %25 = getelementptr inbounds %struct._ir_insn, ptr %17, i64 %24
  %26 = add nsw i32 %.sink.i.i, %16
  %27 = sext i32 %26 to i64
  %28 = shl nsw i64 %27, 4
  %29 = tail call ptr @_erealloc(ptr noundef %25, i64 noundef %28) #24
  %30 = load i32, ptr %14, align 4
  %31 = sext i32 %30 to i64
  %32 = getelementptr inbounds %struct._ir_insn, ptr %29, i64 %31
  store ptr %32, ptr %0, align 8
  %33 = load i32, ptr %12, align 4
  %.not.i = icmp slt i32 %11, %33
  br i1 %.not.i, label %ir_emit_N.exit, label %15

ir_emit_N.exit:                                   ; preds = %15, %8
  %34 = phi ptr [ %.pre30.i, %8 ], [ %32, %15 ]
  %35 = shl i32 %1, 8
  %36 = and i32 %35, 16318208
  %37 = add i32 %10, 2
  store i32 %37, ptr %9, align 8
  %38 = sext i32 %10 to i64
  %39 = getelementptr inbounds %struct._ir_insn, ptr %34, i64 %38
  %40 = or disjoint i32 %36, 458821
  store i32 %40, ptr %39, align 8
  %41 = shl nsw i64 %38, 4
  %42 = or disjoint i64 %41, 4
  %scevgep.i = getelementptr i8, ptr %34, i64 %42
  tail call void @llvm.memset.p0.i64(ptr noundef nonnull align 4 dereferenceable(28) %scevgep.i, i8 0, i64 28, i1 false)
  %43 = getelementptr inbounds i8, ptr %0, i64 248
  %44 = load i32, ptr %43, align 8
  %45 = load ptr, ptr %0, align 8
  %46 = getelementptr inbounds %struct._ir_insn, ptr %45, i64 %38, i32 0, i32 1
  store i32 %44, ptr %46, align 4
  %47 = load ptr, ptr %0, align 8
  %48 = getelementptr inbounds %struct._ir_insn, ptr %47, i64 %38, i32 1
  store i32 %2, ptr %48, align 4
  %49 = load ptr, ptr %0, align 8
  %50 = getelementptr inbounds %struct._ir_insn, ptr %49, i64 %38
  %51 = getelementptr inbounds i8, ptr %50, i64 12
  store i32 %3, ptr %51, align 4
  %52 = load ptr, ptr %0, align 8
  %53 = getelementptr inbounds %struct._ir_insn, ptr %52, i64 %38
  %54 = getelementptr inbounds i8, ptr %53, i64 16
  store i32 %4, ptr %54, align 4
  %55 = load ptr, ptr %0, align 8
  %56 = getelementptr inbounds %struct._ir_insn, ptr %55, i64 %38
  %57 = getelementptr inbounds i8, ptr %56, i64 20
  store i32 %5, ptr %57, align 4
  %58 = load ptr, ptr %0, align 8
  %59 = getelementptr inbounds %struct._ir_insn, ptr %58, i64 %38
  %60 = getelementptr inbounds i8, ptr %59, i64 24
  store i32 %6, ptr %60, align 4
  %61 = load ptr, ptr %0, align 8
  %62 = getelementptr inbounds %struct._ir_insn, ptr %61, i64 %38
  %63 = getelementptr inbounds i8, ptr %62, i64 28
  store i32 %7, ptr %63, align 4
  store i32 %10, ptr %43, align 8
  ret i32 %10
}